; Function Attrs: mustprogress nofree norecurse nosync nounwind willreturn memory(argmem: read) uwtable
define internal range(i32 -32, -2147483648) i32 @mid4_8(ptr noundef readonly captures(none) %0, ptr noundef readonly captures(none) %1, ptr noundef readonly captures(none) %2, ptr noundef readonly captures(none) %3, ptr readnone captures(none) %4, ptr readnone captures(none) %5, i32 noundef %6, i32 noundef %7, i32 noundef %8, i32 noundef %9) #6 {
  %11 = add nsw i32 %8, %7
  %12 = icmp slt i32 %11, 0
  %..i = tail call i32 @llvm.smin.i32(i32 %11, i32 %6)
  %.0.i = select i1 %12, i32 0, i32 %..i
  %13 = sext i32 %.0.i to i64
  %14 = getelementptr inbounds i8, ptr %0, i64 %13
  %15 = load i8, ptr %14, align 1, !tbaa !78
  %16 = zext i8 %15 to i32
  %17 = sub nsw i32 %7, %8
  %18 = icmp slt i32 %17, 0
  %..i16 = tail call i32 @llvm.smin.i32(i32 %17, i32 %6)
  %.0.i17 = select i1 %18, i32 0, i32 %..i16
  %19 = sext i32 %.0.i17 to i64
  %20 = getelementptr inbounds i8, ptr %1, i64 %19
  %21 = load i8, ptr %20, align 1, !tbaa !78
  %22 = zext i8 %21 to i32
  %23 = add nuw nsw i32 %22, %16
  %24 = mul nuw nsw i32 %23, 9
  %25 = mul nsw i32 %8, 3
  %26 = add nsw i32 %25, %7
  %27 = icmp slt i32 %26, 0
  %..i18 = tail call i32 @llvm.smin.i32(i32 %26, i32 %6)
  %.0.i19 = select i1 %27, i32 0, i32 %..i18
  %28 = sext i32 %.0.i19 to i64
  %29 = getelementptr inbounds i8, ptr %2, i64 %28
  %30 = load i8, ptr %29, align 1, !tbaa !78
  %31 = zext i8 %30 to i32
  %32 = sub nsw i32 %7, %25
  %33 = icmp slt i32 %32, 0
  %..i20 = tail call i32 @llvm.smin.i32(i32 %32, i32 %6)
  %.0.i21 = select i1 %33, i32 0, i32 %..i20
  %34 = sext i32 %.0.i21 to i64
  %35 = getelementptr inbounds i8, ptr %3, i64 %34
  %36 = load i8, ptr %35, align 1, !tbaa !78
  %37 = zext i8 %36 to i32
  %38 = add nuw nsw i32 %31, %37
  %reass.sub = sub nsw i32 %24, %38
  %39 = add nsw i32 %reass.sub, 8
  %40 = ashr i32 %39, 4
  %notmask.i = shl nsw i32 -1, %9
  %41 = and i32 %40, %notmask.i
  %.not.i = icmp eq i32 %41, 0
  %42 = xor i32 %notmask.i, -1
  %isnotneg.inv.i = icmp slt i32 %40, 0
  %43 = select i1 %isnotneg.inv.i, i32 0, i32 %42
  %.0.i22 = select i1 %.not.i, i32 %40, i32 %43
  ret i32 %.0.i22
}